; Function Attrs: mustprogress uwtable
define void @_ZN6icu_7524CollationElementIteratorC2ERKS0_(ptr noundef nonnull align 8 dereferenceable(104) %this, ptr noundef nonnull align 8 dereferenceable(104) %other) unnamed_addr #1 align 2 personality ptr @__gxx_personality_v0 {
invoke.cont:
  store ptr getelementptr inbounds ({ [5 x ptr] }, ptr @_ZTVN6icu_7524CollationElementIteratorE, i64 0, i32 0, i64 2), ptr %this, align 8
  %iter_ = getelementptr inbounds i8, ptr %this, i64 8
  %offsets_ = getelementptr inbounds i8, ptr %this, i64 32
  store ptr null, ptr %offsets_, align 8
  %string_ = getelementptr inbounds i8, ptr %this, i64 40
  tail call void @llvm.memset.p0.i64(ptr noundef nonnull align 8 dereferenceable(21) %iter_, i8 0, i64 21, i1 false)
  store ptr getelementptr inbounds ({ [13 x ptr] }, ptr @_ZTVN6icu_7513UnicodeStringE, i64 0, i32 0, i64 2), ptr %string_, align 8
  %fUnion2.i = getelementptr inbounds i8, ptr %this, i64 48
  store i16 2, ptr %fUnion2.i, align 8
  %call = invoke noundef nonnull align 8 dereferenceable(104) ptr @_ZN6icu_7524CollationElementIteratoraSERKS0_(ptr noundef nonnull align 8 dereferenceable(104) %this, ptr noundef nonnull align 8 dereferenceable(104) %other)
          to label %invoke.cont3 unwind label %lpad2

invoke.cont3:                                     ; preds = %invoke.cont
  ret void

lpad2:                                            ; preds = %invoke.cont
  %0 = landingpad { ptr, i32 }
          cleanup
  tail call void @_ZN6icu_7513UnicodeStringD1Ev(ptr noundef nonnull align 8 dereferenceable(64) %string_) #8
  tail call void @_ZN6icu_757UObjectD2Ev(ptr noundef nonnull align 8 dereferenceable(8) %this) #8
  resume { ptr, i32 } %0
}